; Function Attrs: mustprogress uwtable
define void @_ZN5Ipopt13TripletHelper11FillRowCol_EiRKNS_12SumSymMatrixEiiPiS4_(i32 %0, ptr noundef nonnull align 8 dereferenceable(136) %1, i32 noundef %2, i32 noundef %3, ptr noundef writeonly captures(none) %4, ptr noundef writeonly captures(none) %5) local_unnamed_addr #0 align 2 personality ptr @__gxx_personality_v0 {
  %7 = alloca double, align 8
  %8 = alloca %"class.Ipopt::SmartPtr.3", align 8
  %9 = tail call noundef i32 @_ZNK5Ipopt12SumSymMatrix6NTermsEv(ptr noundef nonnull align 8 dereferenceable(136) %1)
  %10 = icmp sgt i32 %9, 0
  br i1 %10, label %.lr.ph, label %._crit_edge

._crit_edge:                                      ; preds = %_ZN5Ipopt8SmartPtrIKNS_9SymMatrixEED2Ev.exit, %6
  ret void

.lr.ph:                                           ; preds = %6, %_ZN5Ipopt8SmartPtrIKNS_9SymMatrixEED2Ev.exit
  %.024 = phi ptr [ %18, %_ZN5Ipopt8SmartPtrIKNS_9SymMatrixEED2Ev.exit ], [ %4, %6 ]
  %.01723 = phi i32 [ %30, %_ZN5Ipopt8SmartPtrIKNS_9SymMatrixEED2Ev.exit ], [ 0, %6 ]
  %.01822 = phi ptr [ %19, %_ZN5Ipopt8SmartPtrIKNS_9SymMatrixEED2Ev.exit ], [ %5, %6 ]
  call void @llvm.lifetime.start.p0(i64 8, ptr nonnull %7) #17
  store double 0.000000e+00, ptr %7, align 8, !tbaa !168
  call void @llvm.lifetime.start.p0(i64 8, ptr nonnull %8) #17
  store ptr null, ptr %8, align 8, !tbaa !45
  invoke void @_ZNK5Ipopt12SumSymMatrix7GetTermEiRdRNS_8SmartPtrIKNS_9SymMatrixEEE(ptr noundef nonnull align 8 dereferenceable(136) %1, i32 noundef %.01723, ptr noundef nonnull align 8 dereferenceable(8) %7, ptr noundef nonnull align 8 dereferenceable(8) %8)
          to label %11 unwind label %33

11:                                               ; preds = %.lr.ph
  %12 = load ptr, ptr %8, align 8, !tbaa !45
  %13 = invoke noundef i32 @_ZN5Ipopt13TripletHelper16GetNumberEntriesERKNS_6MatrixE(ptr noundef nonnull align 8 dereferenceable(69) %12)
          to label %14 unwind label %35

14:                                               ; preds = %11
  %15 = load ptr, ptr %8, align 8, !tbaa !45
  invoke void @_ZN5Ipopt13TripletHelper10FillRowColEiRKNS_6MatrixEPiS4_ii(i32 noundef %13, ptr noundef nonnull align 8 dereferenceable(69) %15, ptr noundef %.024, ptr noundef %.01822, i32 noundef %2, i32 noundef %3)
          to label %16 unwind label %35

16:                                               ; preds = %14
  %17 = sext i32 %13 to i64
  %18 = getelementptr inbounds i32, ptr %.024, i64 %17
  %19 = getelementptr inbounds i32, ptr %.01822, i64 %17
  %20 = load ptr, ptr %8, align 8, !tbaa !45
  %.not.i.i = icmp eq ptr %20, null
  br i1 %.not.i.i, label %_ZN5Ipopt8SmartPtrIKNS_9SymMatrixEED2Ev.exit, label %21

21:                                               ; preds = %16
  %22 = getelementptr inbounds nuw i8, ptr %20, i64 8
  %23 = load i32, ptr %22, align 8, !tbaa !42
  %24 = add nsw i32 %23, -1
  store i32 %24, ptr %22, align 8, !tbaa !42
  %25 = icmp eq i32 %24, 0
  br i1 %25, label %26, label %_ZN5Ipopt8SmartPtrIKNS_9SymMatrixEED2Ev.exit

26:                                               ; preds = %21
  %27 = load ptr, ptr %20, align 8, !tbaa !43
  %28 = getelementptr inbounds nuw i8, ptr %27, i64 8
  %29 = load ptr, ptr %28, align 8
  call void %29(ptr noundef nonnull align 8 dereferenceable(80) %20) #17
  br label %_ZN5Ipopt8SmartPtrIKNS_9SymMatrixEED2Ev.exit

_ZN5Ipopt8SmartPtrIKNS_9SymMatrixEED2Ev.exit:     ; preds = %16, %21, %26
  call void @llvm.lifetime.end.p0(i64 8, ptr nonnull %8) #17
  call void @llvm.lifetime.end.p0(i64 8, ptr nonnull %7) #17
  %30 = add nuw nsw i32 %.01723, 1
  %31 = call noundef i32 @_ZNK5Ipopt12SumSymMatrix6NTermsEv(ptr noundef nonnull align 8 dereferenceable(136) %1)
  %32 = icmp slt i32 %30, %31
  br i1 %32, label %.lr.ph, label %._crit_edge, !llvm.loop !171

33:                                               ; preds = %.lr.ph
  %34 = landingpad { ptr, i32 }
          cleanup
  br label %37

35:                                               ; preds = %14, %11
  %36 = landingpad { ptr, i32 }
          cleanup
  br label %37

37:                                               ; preds = %35, %33
  %.pn = phi { ptr, i32 } [ %36, %35 ], [ %34, %33 ]
  %38 = load ptr, ptr %8, align 8, !tbaa !45
  %.not.i.i20 = icmp eq ptr %38, null
  br i1 %.not.i.i20, label %_ZN5Ipopt8SmartPtrIKNS_9SymMatrixEED2Ev.exit21, label %39

39:                                               ; preds = %37
  %40 = getelementptr inbounds nuw i8, ptr %38, i64 8
  %41 = load i32, ptr %40, align 8, !tbaa !42
  %42 = add nsw i32 %41, -1
  store i32 %42, ptr %40, align 8, !tbaa !42
  %43 = icmp eq i32 %42, 0
  br i1 %43, label %44, label %_ZN5Ipopt8SmartPtrIKNS_9SymMatrixEED2Ev.exit21

44:                                               ; preds = %39
  %45 = load ptr, ptr %38, align 8, !tbaa !43
  %46 = getelementptr inbounds nuw i8, ptr %45, i64 8
  %47 = load ptr, ptr %46, align 8
  call void %47(ptr noundef nonnull align 8 dereferenceable(80) %38) #17
  br label %_ZN5Ipopt8SmartPtrIKNS_9SymMatrixEED2Ev.exit21

_ZN5Ipopt8SmartPtrIKNS_9SymMatrixEED2Ev.exit21:   ; preds = %37, %39, %44
  call void @llvm.lifetime.end.p0(i64 8, ptr nonnull %8) #17
  call void @llvm.lifetime.end.p0(i64 8, ptr nonnull %7) #17
  resume { ptr, i32 } %.pn
}